target datalayout = "e-m:e-p270:32:32-p271:32:32-p272:64:64-i64:64-i128:128-f80:128-n8:16:32:64-S128"
target triple = "x86_64-pc-linux-gnu"

%struct.AVFormatContext = type { ptr, ptr, ptr, ptr, ptr, i32, i32, ptr, i32, ptr, i32, ptr, ptr, i64, i64, i64, i32, i32, i32, i64, i64, ptr, i32, i32, ptr, i32, i32, i32, i32, ptr, i64, i32, i32, %struct.AVIOInterruptCB, i32, i32, i32, i32, i64, i32, i32, i32, i32, i32, i32, i32, i32, i32, i32, i32, i32, i64, i32, i32, i32, i32, i32, ptr, ptr, ptr, ptr, i32, ptr, ptr, ptr, ptr, i32, ptr, ptr, i64, ptr, ptr, ptr, i64 }
%struct.AVIOInterruptCB = type { ptr, ptr }
%struct.XVContext = type { ptr, ptr, i64, i64, ptr, i32, i32, i32, i32, i32, i32, i32, i32, ptr, ptr, ptr, i32, i32, i32, %struct.XShmSegmentInfo, i32, i64 }
%struct.XShmSegmentInfo = type { i64, i32, ptr, i32 }
%struct.XvImage = type { i32, i32, i32, i32, i32, ptr, ptr, ptr, ptr }

; Function Attrs: nounwind uwtable
define internal i32 @xv_write_trailer(ptr noundef %0) #0 {
  %2 = alloca ptr, align 8
  %3 = alloca ptr, align 8
  store ptr %0, ptr %2, align 8, !tbaa !4
  call void @llvm.lifetime.start.p0(i64 8, ptr %3) #7
  %4 = load ptr, ptr %2, align 8, !tbaa !4
  %5 = getelementptr inbounds nuw %struct.AVFormatContext, ptr %4, i32 0, i32 3
  %6 = load ptr, ptr %5, align 8, !tbaa !9
  store ptr %6, ptr %3, align 8, !tbaa !26
  %7 = load ptr, ptr %3, align 8, !tbaa !26
  %8 = getelementptr inbounds nuw %struct.XVContext, ptr %7, i32 0, i32 13
  %9 = load ptr, ptr %8, align 8, !tbaa !51
  %10 = icmp ne ptr %9, null
  br i1 %10, label %11, label %51

11:                                               ; preds = %1
  %12 = load ptr, ptr %3, align 8, !tbaa !26
  %13 = getelementptr inbounds nuw %struct.XVContext, ptr %12, i32 0, i32 13
  %14 = load ptr, ptr %13, align 8, !tbaa !51
  %15 = load ptr, ptr %3, align 8, !tbaa !26
  %16 = getelementptr inbounds nuw %struct.XVContext, ptr %15, i32 0, i32 19
  %17 = call i32 @XShmDetach(ptr noundef %14, ptr noundef %16)
  %18 = load ptr, ptr %3, align 8, !tbaa !26
  %19 = getelementptr inbounds nuw %struct.XVContext, ptr %18, i32 0, i32 15
  %20 = load ptr, ptr %19, align 8, !tbaa !84
  %21 = icmp ne ptr %20, null
  br i1 %21, label %22, label %29

22:                                               ; preds = %11
  %23 = load ptr, ptr %3, align 8, !tbaa !26
  %24 = getelementptr inbounds nuw %struct.XVContext, ptr %23, i32 0, i32 15
  %25 = load ptr, ptr %24, align 8, !tbaa !84
  %26 = getelementptr inbounds nuw %struct.XvImage, ptr %25, i32 0, i32 7
  %27 = load ptr, ptr %26, align 8, !tbaa !90
  %28 = call i32 @shmdt(ptr noundef %27) #7
  br label %29

29:                                               ; preds = %22, %11
  %30 = load ptr, ptr %3, align 8, !tbaa !26
  %31 = getelementptr inbounds nuw %struct.XVContext, ptr %30, i32 0, i32 15
  %32 = load ptr, ptr %31, align 8, !tbaa !84
  %33 = call i32 @XFree(ptr noundef %32)
  %34 = load ptr, ptr %3, align 8, !tbaa !26
  %35 = getelementptr inbounds nuw %struct.XVContext, ptr %34, i32 0, i32 1
  %36 = load ptr, ptr %35, align 8, !tbaa !83
  %37 = icmp ne ptr %36, null
  br i1 %37, label %38, label %46

38:                                               ; preds = %29
  %39 = load ptr, ptr %3, align 8, !tbaa !26
  %40 = getelementptr inbounds nuw %struct.XVContext, ptr %39, i32 0, i32 13
  %41 = load ptr, ptr %40, align 8, !tbaa !51
  %42 = load ptr, ptr %3, align 8, !tbaa !26
  %43 = getelementptr inbounds nuw %struct.XVContext, ptr %42, i32 0, i32 1
  %44 = load ptr, ptr %43, align 8, !tbaa !83
  %45 = call i32 @XFreeGC(ptr noundef %41, ptr noundef %44)
  br label %46

46:                                               ; preds = %38, %29
  %47 = load ptr, ptr %3, align 8, !tbaa !26
  %48 = getelementptr inbounds nuw %struct.XVContext, ptr %47, i32 0, i32 13
  %49 = load ptr, ptr %48, align 8, !tbaa !51
  %50 = call i32 @XCloseDisplay(ptr noundef %49)
  br label %51

51:                                               ; preds = %46, %1
  call void @llvm.lifetime.end.p0(i64 8, ptr %3) #7
  ret i32 0
}