; Function Attrs: nounwind uwtable
define internal noundef i32 @xv_write_trailer(ptr noundef readonly captures(none) %0) #0 {
  %2 = getelementptr inbounds nuw i8, ptr %0, i64 24
  %3 = load ptr, ptr %2, align 8, !tbaa !4
  %4 = getelementptr inbounds nuw i8, ptr %3, i64 72
  %5 = load ptr, ptr %4, align 8, !tbaa !52
  %.not = icmp eq ptr %5, null
  br i1 %.not, label %26, label %6

6:                                                ; preds = %1
  %7 = getelementptr inbounds nuw i8, ptr %3, i64 112
  %8 = tail call i32 @XShmDetach(ptr noundef nonnull %5, ptr noundef nonnull %7) #5
  %9 = getelementptr inbounds nuw i8, ptr %3, i64 88
  %10 = load ptr, ptr %9, align 8, !tbaa !82
  %.not13 = icmp eq ptr %10, null
  br i1 %.not13, label %15, label %11

11:                                               ; preds = %6
  %12 = getelementptr inbounds nuw i8, ptr %10, i64 40
  %13 = load ptr, ptr %12, align 8, !tbaa !88
  %14 = tail call i32 @shmdt(ptr noundef %13) #5
  %.pre = load ptr, ptr %9, align 8, !tbaa !82
  br label %15

15:                                               ; preds = %11, %6
  %16 = phi ptr [ %.pre, %11 ], [ null, %6 ]
  %17 = tail call i32 @XFree(ptr noundef %16) #5
  %18 = getelementptr inbounds nuw i8, ptr %3, i64 8
  %19 = load ptr, ptr %18, align 8, !tbaa !81
  %.not14 = icmp eq ptr %19, null
  br i1 %.not14, label %23, label %20

20:                                               ; preds = %15
  %21 = load ptr, ptr %4, align 8, !tbaa !52
  %22 = tail call i32 @XFreeGC(ptr noundef %21, ptr noundef nonnull %19) #5
  br label %23

23:                                               ; preds = %20, %15
  %24 = load ptr, ptr %4, align 8, !tbaa !52
  %25 = tail call i32 @XCloseDisplay(ptr noundef %24) #5
  br label %26

26:                                               ; preds = %23, %1
  ret i32 0
}